target datalayout = "e-m:e-p270:32:32-p271:32:32-p272:64:64-i64:64-i128:128-f80:128-n8:16:32:64-S128"
target triple = "x86_64-pc-linux-gnu"

%struct.x509_trust_st = type { i32, i32, ptr, ptr, i32, ptr }

@trtable = internal global ptr null, align 8

; Function Attrs: inlinehint nounwind uwtable
define internal ptr @ossl_check_X509_TRUST_type(ptr noundef %0) #3 {
  %2 = alloca ptr, align 8
  store ptr %0, ptr %2, align 8, !tbaa !11
  %3 = load ptr, ptr %2, align 8, !tbaa !11
  ret ptr %3
}

; Function Attrs: inlinehint nounwind uwtable
define internal ptr @ossl_check_X509_TRUST_sk_type(ptr noundef %0) #3 {
  %2 = alloca ptr, align 8
  store ptr %0, ptr %2, align 8, !tbaa !53
  %3 = load ptr, ptr %2, align 8, !tbaa !53
  ret ptr %3
}

; Function Attrs: nounwind uwtable
define i32 @X509_TRUST_get_by_id(i32 noundef %0) #0 {
  %2 = alloca i32, align 4
  %3 = alloca i32, align 4
  %4 = alloca %struct.x509_trust_st, align 8
  %5 = alloca i32, align 4
  %6 = alloca i32, align 4
  store i32 %0, ptr %3, align 4, !tbaa !9
  call void @llvm.lifetime.start.p0(i64 40, ptr %4) #4
  call void @llvm.lifetime.start.p0(i64 4, ptr %5) #4
  %7 = load i32, ptr %3, align 4, !tbaa !9
  %8 = icmp sge i32 %7, 1
  br i1 %8, label %9, label %15

9:                                                ; preds = %1
  %10 = load i32, ptr %3, align 4, !tbaa !9
  %11 = icmp sle i32 %10, 8
  br i1 %11, label %12, label %15

12:                                               ; preds = %9
  %13 = load i32, ptr %3, align 4, !tbaa !9
  %14 = sub nsw i32 %13, 1
  store i32 %14, ptr %2, align 4
  store i32 1, ptr %6, align 4
  br label %36

15:                                               ; preds = %9, %1
  %16 = load ptr, ptr @trtable, align 8, !tbaa !53
  %17 = icmp eq ptr %16, null
  br i1 %17, label %18, label %19

18:                                               ; preds = %15
  store i32 -1, ptr %2, align 4
  store i32 1, ptr %6, align 4
  br label %36

19:                                               ; preds = %15
  %20 = load i32, ptr %3, align 4, !tbaa !9
  %21 = getelementptr inbounds nuw %struct.x509_trust_st, ptr %4, i32 0, i32 0
  store i32 %20, ptr %21, align 8, !tbaa !55
  %22 = load ptr, ptr @trtable, align 8, !tbaa !53
  %23 = call ptr @ossl_check_X509_TRUST_sk_type(ptr noundef %22)
  call void @OPENSSL_sk_sort(ptr noundef %23)
  %24 = load ptr, ptr @trtable, align 8, !tbaa !53
  %25 = call ptr @ossl_check_X509_TRUST_sk_type(ptr noundef %24)
  %26 = call ptr @ossl_check_X509_TRUST_type(ptr noundef %4)
  %27 = call i32 @OPENSSL_sk_find(ptr noundef %25, ptr noundef %26)
  store i32 %27, ptr %5, align 4, !tbaa !9
  %28 = load i32, ptr %5, align 4, !tbaa !9
  %29 = icmp slt i32 %28, 0
  br i1 %29, label %30, label %31

30:                                               ; preds = %19
  store i32 -1, ptr %2, align 4
  store i32 1, ptr %6, align 4
  br label %36

31:                                               ; preds = %19
  %32 = load i32, ptr %5, align 4, !tbaa !9
  %33 = sext i32 %32 to i64
  %34 = add i64 %33, 8
  %35 = trunc i64 %34 to i32
  store i32 %35, ptr %2, align 4
  store i32 1, ptr %6, align 4
  br label %36

36:                                               ; preds = %31, %30, %18, %12
  call void @llvm.lifetime.end.p0(i64 4, ptr %5) #4
  call void @llvm.lifetime.end.p0(i64 40, ptr %4) #4
  %37 = load i32, ptr %2, align 4
  ret i32 %37
}