; Function Attrs: nounwind uwtable
define range(i32 -1, -2147483640) i32 @X509_TRUST_get_by_id(i32 noundef %0) local_unnamed_addr #2 {
  %2 = alloca %struct.x509_trust_st, align 8
  call void @llvm.lifetime.start.p0(i64 40, ptr nonnull %2) #6
  %3 = add i32 %0, -1
  %or.cond = icmp ult i32 %3, 8
  br i1 %or.cond, label %10, label %4

4:                                                ; preds = %1
  %5 = load ptr, ptr @trtable, align 8, !tbaa !7
  %6 = icmp eq ptr %5, null
  br i1 %6, label %10, label %7

7:                                                ; preds = %4
  store i32 %0, ptr %2, align 8, !tbaa !9
  tail call void @OPENSSL_sk_sort(ptr noundef nonnull %5) #6
  %8 = load ptr, ptr @trtable, align 8, !tbaa !7
  %9 = call i32 @OPENSSL_sk_find(ptr noundef %8, ptr noundef nonnull %2) #6
  %narrow = add nuw i32 %9, 8
  %.inv = icmp sgt i32 %9, -1
  %spec.select = select i1 %.inv, i32 %narrow, i32 -1
  br label %10

10:                                               ; preds = %1, %7, %4
  %.0 = phi i32 [ -1, %4 ], [ %spec.select, %7 ], [ %3, %1 ]
  call void @llvm.lifetime.end.p0(i64 40, ptr nonnull %2) #6
  ret i32 %.0
}